; Function Attrs: mustprogress uwtable
define noundef double @_ZNK8QuantLib21NoArbSabrSmileSection11optionPriceEdNS_6Option4TypeEd(ptr nocapture noundef nonnull readonly align 8 dereferenceable(128) %this, double noundef %strike, i32 noundef %type, double noundef %discount) unnamed_addr #6 align 2 {
entry:
  %model_ = getelementptr inbounds nuw i8, ptr %this, i64 72
  %0 = load ptr, ptr %model_, align 8, !tbaa !57
  %cmp.not.i = icmp eq ptr %0, null
  br i1 %cmp.not.i, label %cond.false.i, label %_ZNK5boost10shared_ptrIN8QuantLib14NoArbSabrModelEEptEv.exit, !prof !67

cond.false.i:                                     ; preds = %entry
  tail call void @_ZN5boost16assertion_failedEPKcS1_S1_l(ptr noundef nonnull @.str.13, ptr noundef nonnull @__PRETTY_FUNCTION__._ZNK5boost10shared_ptrIN8QuantLib14NoArbSabrModelEEptEv, ptr noundef nonnull @.str.14, i64 noundef 784)
  %.pre.i = load ptr, ptr %model_, align 8, !tbaa !57
  br label %_ZNK5boost10shared_ptrIN8QuantLib14NoArbSabrModelEEptEv.exit

_ZNK5boost10shared_ptrIN8QuantLib14NoArbSabrModelEEptEv.exit: ; preds = %entry, %cond.false.i
  %1 = phi ptr [ %0, %entry ], [ %.pre.i, %cond.false.i ]
  %call3 = tail call noundef double @_ZNK8QuantLib14NoArbSabrModel11optionPriceEd(ptr noundef nonnull align 8 dereferenceable(112) %1, double noundef %strike)
  %cmp = icmp eq i32 %type, 1
  %forward_ = getelementptr inbounds nuw i8, ptr %this, i64 88
  %2 = load double, ptr %forward_, align 8
  %sub = fsub double %2, %strike
  %sub4 = fsub double %call3, %sub
  %cond = select i1 %cmp, double %call3, double %sub4
  %mul = fmul double %discount, %cond
  ret double %mul
}